target datalayout = "e-m:e-p270:32:32-p271:32:32-p272:64:64-i64:64-i128:128-f80:128-n8:16:32:64-S128"
target triple = "x86_64-pc-linux-gnu"

; Function Attrs: inlinehint nounwind uwtable
define internal i32 @ctMaskWord32GTE(i32 noundef %0, i32 noundef %1) #2 {
  %3 = alloca i32, align 4
  %4 = alloca i32, align 4
  store i32 %0, ptr %3, align 4, !tbaa !10
  store i32 %1, ptr %4, align 4, !tbaa !10
  %5 = load i32, ptr %3, align 4, !tbaa !10
  %6 = zext i32 %5 to i64
  %7 = load i32, ptr %4, align 4, !tbaa !10
  %8 = zext i32 %7 to i64
  %9 = sub i64 %6, %8
  %10 = lshr i64 %9, 63
  %11 = sub i64 %10, 1
  %12 = trunc i64 %11 to i32
  ret i32 %12
}

; Function Attrs: inlinehint nounwind uwtable
define internal i32 @ConstantCompare(ptr noundef %0, ptr noundef %1, i32 noundef %2) #2 {
  %4 = alloca ptr, align 8
  %5 = alloca ptr, align 8
  %6 = alloca i32, align 4
  %7 = alloca i32, align 4
  %8 = alloca i32, align 4
  store ptr %0, ptr %4, align 8, !tbaa !8
  store ptr %1, ptr %5, align 8, !tbaa !8
  store i32 %2, ptr %6, align 4, !tbaa !10
  call void @llvm.lifetime.start.p0(i64 4, ptr %7) #6
  call void @llvm.lifetime.start.p0(i64 4, ptr %8) #6
  store i32 0, ptr %8, align 4, !tbaa !10
  store i32 0, ptr %7, align 4, !tbaa !10
  br label %9

9:                                                ; preds = %29, %3
  %10 = load i32, ptr %7, align 4, !tbaa !10
  %11 = load i32, ptr %6, align 4, !tbaa !10
  %12 = icmp slt i32 %10, %11
  br i1 %12, label %13, label %32

13:                                               ; preds = %9
  %14 = load ptr, ptr %4, align 8, !tbaa !8
  %15 = load i32, ptr %7, align 4, !tbaa !10
  %16 = sext i32 %15 to i64
  %17 = getelementptr inbounds i8, ptr %14, i64 %16
  %18 = load i8, ptr %17, align 1, !tbaa !22
  %19 = zext i8 %18 to i32
  %20 = load ptr, ptr %5, align 8, !tbaa !8
  %21 = load i32, ptr %7, align 4, !tbaa !10
  %22 = sext i32 %21 to i64
  %23 = getelementptr inbounds i8, ptr %20, i64 %22
  %24 = load i8, ptr %23, align 1, !tbaa !22
  %25 = zext i8 %24 to i32
  %26 = xor i32 %19, %25
  %27 = load i32, ptr %8, align 4, !tbaa !10
  %28 = or i32 %27, %26
  store i32 %28, ptr %8, align 4, !tbaa !10
  br label %29

29:                                               ; preds = %13
  %30 = load i32, ptr %7, align 4, !tbaa !10
  %31 = add nsw i32 %30, 1
  store i32 %31, ptr %7, align 4, !tbaa !10
  br label %9, !llvm.loop !23

32:                                               ; preds = %9
  %33 = load i32, ptr %8, align 4, !tbaa !10
  call void @llvm.lifetime.end.p0(i64 4, ptr %8) #6
  call void @llvm.lifetime.end.p0(i64 4, ptr %7) #6
  ret i32 %33
}

; Function Attrs: inlinehint nounwind uwtable
define internal i32 @min(i32 noundef %0, i32 noundef %1) #2 {
  %3 = alloca i32, align 4
  %4 = alloca i32, align 4
  %5 = alloca i32, align 4
  store i32 %0, ptr %3, align 4, !tbaa !10
  store i32 %1, ptr %4, align 4, !tbaa !10
  call void @llvm.lifetime.start.p0(i64 4, ptr %5) #6
  %6 = load i32, ptr %3, align 4, !tbaa !10
  %7 = load i32, ptr %4, align 4, !tbaa !10
  %8 = call i32 @ctMaskWord32GTE(i32 noundef %6, i32 noundef %7)
  store i32 %8, ptr %5, align 4, !tbaa !10
  %9 = load i32, ptr %3, align 4, !tbaa !10
  %10 = load i32, ptr %5, align 4, !tbaa !10
  %11 = xor i32 %10, -1
  %12 = and i32 %9, %11
  %13 = load i32, ptr %4, align 4, !tbaa !10
  %14 = load i32, ptr %5, align 4, !tbaa !10
  %15 = and i32 %13, %14
  %16 = or i32 %12, %15
  call void @llvm.lifetime.end.p0(i64 4, ptr %5) #6
  ret i32 %16
}

; Function Attrs: nounwind uwtable
define i32 @wc_RNG_TestSeed(ptr noundef %0, i32 noundef %1) #0 {
  %3 = alloca ptr, align 8
  %4 = alloca i32, align 4
  %5 = alloca i32, align 4
  %6 = alloca i32, align 4
  %7 = alloca i32, align 4
  store ptr %0, ptr %3, align 8, !tbaa !8
  store i32 %1, ptr %4, align 4, !tbaa !10
  call void @llvm.lifetime.start.p0(i64 4, ptr %5) #6
  store i32 0, ptr %5, align 4, !tbaa !10
  call void @llvm.lifetime.start.p0(i64 4, ptr %6) #6
  store i32 0, ptr %6, align 4, !tbaa !10
  call void @llvm.lifetime.start.p0(i64 4, ptr %7) #6
  %8 = load i32, ptr %4, align 4, !tbaa !10
  %9 = sub i32 %8, 4
  %10 = call i32 @min(i32 noundef 4, i32 noundef %9)
  store i32 %10, ptr %7, align 4, !tbaa !10
  br label %11

11:                                               ; preds = %32, %2
  %12 = load i32, ptr %6, align 4, !tbaa !10
  %13 = load i32, ptr %4, align 4, !tbaa !10
  %14 = sub i32 %13, 4
  %15 = icmp ult i32 %12, %14
  br i1 %15, label %16, label %39

16:                                               ; preds = %11
  %17 = load ptr, ptr %3, align 8, !tbaa !8
  %18 = load i32, ptr %6, align 4, !tbaa !10
  %19 = zext i32 %18 to i64
  %20 = getelementptr inbounds nuw i8, ptr %17, i64 %19
  %21 = load ptr, ptr %3, align 8, !tbaa !8
  %22 = load i32, ptr %6, align 4, !tbaa !10
  %23 = zext i32 %22 to i64
  %24 = getelementptr inbounds nuw i8, ptr %21, i64 %23
  %25 = load i32, ptr %7, align 4, !tbaa !10
  %26 = zext i32 %25 to i64
  %27 = getelementptr inbounds nuw i8, ptr %24, i64 %26
  %28 = load i32, ptr %7, align 4, !tbaa !10
  %29 = call i32 @ConstantCompare(ptr noundef %20, ptr noundef %27, i32 noundef %28)
  %30 = icmp eq i32 %29, 0
  br i1 %30, label %31, label %32

31:                                               ; preds = %16
  store i32 3, ptr %5, align 4, !tbaa !10
  br label %32

32:                                               ; preds = %31, %16
  %33 = load i32, ptr %6, align 4, !tbaa !10
  %34 = add i32 %33, 4
  store i32 %34, ptr %6, align 4, !tbaa !10
  %35 = load i32, ptr %4, align 4, !tbaa !10
  %36 = load i32, ptr %6, align 4, !tbaa !10
  %37 = sub i32 %35, %36
  %38 = call i32 @min(i32 noundef 4, i32 noundef %37)
  store i32 %38, ptr %7, align 4, !tbaa !10
  br label %11, !llvm.loop !20

39:                                               ; preds = %11
  %40 = load i32, ptr %5, align 4, !tbaa !10
  call void @llvm.lifetime.end.p0(i64 4, ptr %7) #6
  call void @llvm.lifetime.end.p0(i64 4, ptr %6) #6
  call void @llvm.lifetime.end.p0(i64 4, ptr %5) #6
  ret i32 %40
}