; Function Attrs: nofree norecurse nosync nounwind memory(argmem: read) uwtable
define range(i32 0, 4) i32 @wc_RNG_TestSeed(ptr noundef readonly captures(none) %0, i32 noundef %1) local_unnamed_addr #1 {
  %3 = add i32 %1, -4
  %.not20 = icmp eq i32 %3, 0
  br i1 %.not20, label %._crit_edge, label %.lr.ph.preheader

.lr.ph.preheader:                                 ; preds = %2
  %4 = tail call noundef range(i32 0, 5) i32 @llvm.umin.i32(i32 %3, i32 4)
  %5 = zext i32 %3 to i64
  br label %.lr.ph

.lr.ph:                                           ; preds = %.lr.ph.preheader, %17
  %indvars.iv = phi i64 [ 0, %.lr.ph.preheader ], [ %indvars.iv.next, %17 ]
  %.019 = phi i32 [ %4, %.lr.ph.preheader ], [ %21, %17 ]
  %.01317 = phi i32 [ 0, %.lr.ph.preheader ], [ %18, %17 ]
  %6 = getelementptr inbounds nuw i8, ptr %0, i64 %indvars.iv
  %7 = zext nneg i32 %.019 to i64
  %8 = getelementptr inbounds nuw i8, ptr %6, i64 %7
  %.not = icmp eq i32 %.019, 0
  br i1 %.not, label %ConstantCompare.exit.thread, label %.lr.ph.i

.lr.ph.i:                                         ; preds = %.lr.ph, %.lr.ph.i
  %indvars.iv.i = phi i64 [ %indvars.iv.next.i, %.lr.ph.i ], [ 0, %.lr.ph ]
  %.010.i = phi i32 [ %15, %.lr.ph.i ], [ 0, %.lr.ph ]
  %9 = getelementptr inbounds nuw i8, ptr %6, i64 %indvars.iv.i
  %10 = load i8, ptr %9, align 1, !tbaa !15
  %11 = getelementptr inbounds nuw i8, ptr %8, i64 %indvars.iv.i
  %12 = load i8, ptr %11, align 1, !tbaa !15
  %13 = xor i8 %12, %10
  %.fr = freeze i8 %13
  %14 = zext i8 %.fr to i32
  %15 = or i32 %.010.i, %14
  %indvars.iv.next.i = add nuw nsw i64 %indvars.iv.i, 1
  %exitcond.not.i = icmp eq i64 %indvars.iv.next.i, %7
  br i1 %exitcond.not.i, label %ConstantCompare.exit, label %.lr.ph.i, !llvm.loop !19

ConstantCompare.exit:                             ; preds = %.lr.ph.i
  %16 = icmp eq i32 %15, 0
  br i1 %16, label %ConstantCompare.exit.thread, label %17

ConstantCompare.exit.thread:                      ; preds = %.lr.ph, %ConstantCompare.exit
  br label %17

17:                                               ; preds = %ConstantCompare.exit, %ConstantCompare.exit.thread
  %18 = phi i32 [ 3, %ConstantCompare.exit.thread ], [ %.01317, %ConstantCompare.exit ]
  %indvars.iv.next = add nuw nsw i64 %indvars.iv, 4
  %19 = trunc nuw i64 %indvars.iv.next to i32
  %20 = sub i32 %1, %19
  %21 = tail call noundef range(i32 0, 5) i32 @llvm.umin.i32(i32 %20, i32 4)
  %22 = icmp samesign ult i64 %indvars.iv.next, %5
  br i1 %22, label %.lr.ph, label %._crit_edge, !llvm.loop !20

._crit_edge:                                      ; preds = %17, %2
  %.013.lcssa = phi i32 [ 0, %2 ], [ %18, %17 ]
  ret i32 %.013.lcssa
}